; Function Attrs: mustprogress nofree nounwind willreturn memory(write, argmem: readwrite) uwtable
define hidden range(i32 -2, 1) i32 @ma_hishelf2_get_heap_size(ptr noundef readonly captures(none) %0, ptr noundef writeonly captures(address_is_null) %1) local_unnamed_addr #36 {
  %3 = getelementptr inbounds nuw i8, ptr %0, i64 32
  %4 = load double, ptr %3, align 8, !noalias !127
  %5 = fmul double %4, 0x401921FB54442D18
  %6 = getelementptr inbounds nuw i8, ptr %0, i64 8
  %7 = load i32, ptr %6, align 8, !noalias !127
  %8 = uitofp i32 %7 to double
  %9 = fdiv double %5, %8
  %10 = tail call double @llvm.fabs.f64(double %9)
  %11 = fcmp oeq double %10, 0x7FF0000000000000
  br i1 %11, label %cdce.call, label %cdce.end, !prof !11

cdce.call:                                        ; preds = %2
  %12 = tail call double @sin(double noundef %9) #72, !noalias !127
  br label %cdce.end

cdce.end:                                         ; preds = %2, %cdce.call
  %13 = fsub double 0x3FF921FB54442D18, %9
  %14 = tail call double @llvm.fabs.f64(double %13)
  %15 = fcmp oeq double %14, 0x7FF0000000000000
  br i1 %15, label %cdce.call9, label %cdce.end10, !prof !11

cdce.call9:                                       ; preds = %cdce.end
  %16 = tail call double @sin(double noundef %13) #72, !noalias !127
  br label %cdce.end10

cdce.end10:                                       ; preds = %cdce.end, %cdce.call9
  %17 = getelementptr inbounds nuw i8, ptr %0, i64 16
  %18 = load double, ptr %17, align 8, !noalias !127
  %19 = fdiv double %18, 4.000000e+01
  %20 = tail call double @pow(double noundef 1.000000e+01, double noundef %19) #72, !noalias !127
  %21 = getelementptr inbounds nuw i8, ptr %0, i64 24
  %22 = load double, ptr %21, align 8, !noalias !127
  %23 = fdiv double 1.000000e+00, %20
  %24 = fadd double %20, %23
  %25 = fdiv double 1.000000e+00, %22
  %26 = fadd double %25, -1.000000e+00
  %27 = tail call double @llvm.fmuladd.f64(double %24, double %26, double 2.000000e+00)
  %28 = fcmp olt double %27, 0.000000e+00
  br i1 %28, label %cdce.call11, label %cdce.end12, !prof !11

cdce.call11:                                      ; preds = %cdce.end10
  %29 = tail call double @sqrt(double noundef %27) #72, !noalias !127
  br label %cdce.end12

cdce.end12:                                       ; preds = %cdce.end10, %cdce.call11
  %30 = fcmp olt double %20, 0.000000e+00
  br i1 %30, label %cdce.call13, label %cdce.end14, !prof !11

cdce.call13:                                      ; preds = %cdce.end12
  %31 = tail call double @sqrt(double noundef %20) #72, !noalias !127
  br label %cdce.end14

cdce.end14:                                       ; preds = %cdce.end12, %cdce.call13
  %32 = getelementptr inbounds nuw i8, ptr %0, i64 4
  %33 = load i32, ptr %32, align 4, !noalias !127
  %34 = icmp eq ptr %1, null
  br i1 %34, label %ma_biquad_get_heap_size.exit, label %35

35:                                               ; preds = %cdce.end14
  store i64 0, ptr %1, align 8
  %36 = icmp eq i32 %33, 0
  br i1 %36, label %ma_biquad_get_heap_size.exit, label %37

37:                                               ; preds = %35
  %38 = zext i32 %33 to i64
  %39 = shl nuw nsw i64 %38, 3
  store i64 %39, ptr %1, align 8
  br label %ma_biquad_get_heap_size.exit

ma_biquad_get_heap_size.exit:                     ; preds = %cdce.end14, %35, %37
  %.0.i = phi i32 [ 0, %37 ], [ -2, %cdce.end14 ], [ -2, %35 ]
  ret i32 %.0.i
}